target datalayout = "e-m:e-p270:32:32-p271:32:32-p272:64:64-i64:64-i128:128-f80:128-n8:16:32:64-S128"
target triple = "x86_64-pc-linux-gnu"

%struct.Vec_Ptr_t_ = type { i32, i32, ptr }
%struct.Vec_Int_t_ = type { i32, i32, ptr }

; Function Attrs: inlinehint nounwind uwtable
define internal void @Vec_IntWriteEntry(ptr noundef %0, i32 noundef %1, i32 noundef %2) #2 {
  %4 = alloca ptr, align 8
  %5 = alloca i32, align 4
  %6 = alloca i32, align 4
  store ptr %0, ptr %4, align 8, !tbaa !20
  store i32 %1, ptr %5, align 4, !tbaa !3
  store i32 %2, ptr %6, align 4, !tbaa !3
  %7 = load i32, ptr %6, align 4, !tbaa !3
  %8 = load ptr, ptr %4, align 8, !tbaa !20
  %9 = getelementptr inbounds nuw %struct.Vec_Int_t_, ptr %8, i32 0, i32 2
  %10 = load ptr, ptr %9, align 8, !tbaa !27
  %11 = load i32, ptr %5, align 4, !tbaa !3
  %12 = sext i32 %11 to i64
  %13 = getelementptr inbounds i32, ptr %10, i64 %12
  store i32 %7, ptr %13, align 4, !tbaa !3
  ret void
}

; Function Attrs: nounwind uwtable
define i32 @Sim_UtilCountOnes(ptr noundef %0, i32 noundef %1) #0 {
  %3 = alloca ptr, align 8
  %4 = alloca i32, align 4
  %5 = alloca ptr, align 8
  %6 = alloca i32, align 4
  %7 = alloca i32, align 4
  %8 = alloca i32, align 4
  store ptr %0, ptr %3, align 8, !tbaa !17
  store i32 %1, ptr %4, align 4, !tbaa !3
  call void @llvm.lifetime.start.p0(i64 8, ptr %5) #8
  call void @llvm.lifetime.start.p0(i64 4, ptr %6) #8
  call void @llvm.lifetime.start.p0(i64 4, ptr %7) #8
  call void @llvm.lifetime.start.p0(i64 4, ptr %8) #8
  %9 = load ptr, ptr %3, align 8, !tbaa !17
  store ptr %9, ptr %5, align 8, !tbaa !83
  %10 = load i32, ptr %4, align 4, !tbaa !3
  %11 = mul nsw i32 4, %10
  store i32 %11, ptr %7, align 4, !tbaa !3
  store i32 0, ptr %6, align 4, !tbaa !3
  store i32 0, ptr %8, align 4, !tbaa !3
  br label %12

12:                                               ; preds = %27, %2
  %13 = load i32, ptr %8, align 4, !tbaa !3
  %14 = load i32, ptr %7, align 4, !tbaa !3
  %15 = icmp slt i32 %13, %14
  br i1 %15, label %16, label %30

16:                                               ; preds = %12
  %17 = load ptr, ptr %5, align 8, !tbaa !83
  %18 = load i32, ptr %8, align 4, !tbaa !3
  %19 = sext i32 %18 to i64
  %20 = getelementptr inbounds i8, ptr %17, i64 %19
  %21 = load i8, ptr %20, align 1, !tbaa !84
  %22 = zext i8 %21 to i64
  %23 = getelementptr inbounds nuw [256 x i32], ptr @bit_count, i64 0, i64 %22
  %24 = load i32, ptr %23, align 4, !tbaa !3
  %25 = load i32, ptr %6, align 4, !tbaa !3
  %26 = add nsw i32 %25, %24
  store i32 %26, ptr %6, align 4, !tbaa !3
  br label %27

27:                                               ; preds = %16
  %28 = load i32, ptr %8, align 4, !tbaa !3
  %29 = add nsw i32 %28, 1
  store i32 %29, ptr %8, align 4, !tbaa !3
  br label %12, !llvm.loop !85

30:                                               ; preds = %12
  %31 = load i32, ptr %6, align 4, !tbaa !3
  call void @llvm.lifetime.end.p0(i64 4, ptr %8) #8
  call void @llvm.lifetime.end.p0(i64 4, ptr %7) #8
  call void @llvm.lifetime.end.p0(i64 4, ptr %6) #8
  call void @llvm.lifetime.end.p0(i64 8, ptr %5) #8
  ret i32 %31
}

; Function Attrs: inlinehint nounwind uwtable
define internal ptr @Vec_PtrEntry(ptr noundef %0, i32 noundef %1) #2 {
  %3 = alloca ptr, align 8
  %4 = alloca i32, align 4
  store ptr %0, ptr %3, align 8, !tbaa !7
  store i32 %1, ptr %4, align 4, !tbaa !3
  %5 = load ptr, ptr %3, align 8, !tbaa !7
  %6 = getelementptr inbounds nuw %struct.Vec_Ptr_t_, ptr %5, i32 0, i32 2
  %7 = load ptr, ptr %6, align 8, !tbaa !10
  %8 = load i32, ptr %4, align 4, !tbaa !3
  %9 = sext i32 %8 to i64
  %10 = getelementptr inbounds ptr, ptr %7, i64 %9
  %11 = load ptr, ptr %10, align 8, !tbaa !12
  ret ptr %11
}

; Function Attrs: inlinehint nounwind uwtable
define internal i32 @Vec_PtrSize(ptr noundef %0) #2 {
  %2 = alloca ptr, align 8
  store ptr %0, ptr %2, align 8, !tbaa !7
  %3 = load ptr, ptr %2, align 8, !tbaa !7
  %4 = getelementptr inbounds nuw %struct.Vec_Ptr_t_, ptr %3, i32 0, i32 1
  %5 = load i32, ptr %4, align 4, !tbaa !15
  ret i32 %5
}

; Function Attrs: nounwind uwtable
define i32 @Sim_UtilCountAllPairs(ptr noundef %0, i32 noundef %1, ptr noundef %2) #0 {
  %4 = alloca ptr, align 8
  %5 = alloca i32, align 4
  %6 = alloca ptr, align 8
  %7 = alloca ptr, align 8
  %8 = alloca i32, align 4
  %9 = alloca i32, align 4
  %10 = alloca i32, align 4
  %11 = alloca i32, align 4
  store ptr %0, ptr %4, align 8, !tbaa !7
  store i32 %1, ptr %5, align 4, !tbaa !3
  store ptr %2, ptr %6, align 8, !tbaa !20
  call void @llvm.lifetime.start.p0(i64 8, ptr %7) #8
  call void @llvm.lifetime.start.p0(i64 4, ptr %8) #8
  call void @llvm.lifetime.start.p0(i64 4, ptr %9) #8
  call void @llvm.lifetime.start.p0(i64 4, ptr %10) #8
  call void @llvm.lifetime.start.p0(i64 4, ptr %11) #8
  store i32 0, ptr %8, align 4, !tbaa !3
  store i32 0, ptr %11, align 4, !tbaa !3
  br label %12

12:                                               ; preds = %38, %3
  %13 = load i32, ptr %11, align 4, !tbaa !3
  %14 = load ptr, ptr %4, align 8, !tbaa !7
  %15 = call i32 @Vec_PtrSize(ptr noundef %14)
  %16 = icmp slt i32 %13, %15
  br i1 %16, label %17, label %21

17:                                               ; preds = %12
  %18 = load ptr, ptr %4, align 8, !tbaa !7
  %19 = load i32, ptr %11, align 4, !tbaa !3
  %20 = call ptr @Vec_PtrEntry(ptr noundef %18, i32 noundef %19)
  store ptr %20, ptr %7, align 8, !tbaa !17
  br label %21

21:                                               ; preds = %17, %12
  %22 = phi i1 [ false, %12 ], [ true, %17 ]
  br i1 %22, label %23, label %41

23:                                               ; preds = %21
  %24 = load ptr, ptr %7, align 8, !tbaa !17
  %25 = load i32, ptr %5, align 4, !tbaa !3
  %26 = call i32 @Sim_UtilCountOnes(ptr noundef %24, i32 noundef %25)
  store i32 %26, ptr %9, align 4, !tbaa !3
  %27 = load i32, ptr %9, align 4, !tbaa !3
  %28 = load i32, ptr %9, align 4, !tbaa !3
  %29 = sub nsw i32 %28, 1
  %30 = mul nsw i32 %27, %29
  %31 = sdiv i32 %30, 2
  store i32 %31, ptr %10, align 4, !tbaa !3
  %32 = load ptr, ptr %6, align 8, !tbaa !20
  %33 = load i32, ptr %11, align 4, !tbaa !3
  %34 = load i32, ptr %10, align 4, !tbaa !3
  call void @Vec_IntWriteEntry(ptr noundef %32, i32 noundef %33, i32 noundef %34)
  %35 = load i32, ptr %10, align 4, !tbaa !3
  %36 = load i32, ptr %8, align 4, !tbaa !3
  %37 = add nsw i32 %36, %35
  store i32 %37, ptr %8, align 4, !tbaa !3
  br label %38

38:                                               ; preds = %23
  %39 = load i32, ptr %11, align 4, !tbaa !3
  %40 = add nsw i32 %39, 1
  store i32 %40, ptr %11, align 4, !tbaa !3
  br label %12, !llvm.loop !93

41:                                               ; preds = %21
  %42 = load i32, ptr %8, align 4, !tbaa !3
  call void @llvm.lifetime.end.p0(i64 4, ptr %11) #8
  call void @llvm.lifetime.end.p0(i64 4, ptr %10) #8
  call void @llvm.lifetime.end.p0(i64 4, ptr %9) #8
  call void @llvm.lifetime.end.p0(i64 4, ptr %8) #8
  call void @llvm.lifetime.end.p0(i64 8, ptr %7) #8
  ret i32 %42
}