; Function Attrs: nofree norecurse nosync nounwind memory(readwrite, inaccessiblemem: none) uwtable
define i32 @Sim_UtilCountAllPairs(ptr noundef readonly captures(none) %0, i32 noundef %1, ptr noundef readonly captures(none) %2) local_unnamed_addr #8 {
  %4 = getelementptr i8, ptr %0, i64 4
  %.val17 = load i32, ptr %4, align 4, !tbaa !13
  %5 = icmp sgt i32 %.val17, 0
  br i1 %5, label %.lr.ph, label %.critedge

.lr.ph:                                           ; preds = %3
  %6 = getelementptr i8, ptr %0, i64 8
  %.val15 = load ptr, ptr %6, align 8, !tbaa !9
  %7 = icmp sgt i32 %1, 0
  %8 = shl i32 %1, 2
  %smax.i = tail call i32 @llvm.smax.i32(i32 %8, i32 1)
  %wide.trip.count.i = zext nneg i32 %smax.i to i64
  %9 = getelementptr i8, ptr %2, i64 8
  %.val16 = load ptr, ptr %9, align 8, !tbaa !20
  br i1 %7, label %.lr.ph.preheader.i.us, label %Sim_UtilCountOnes.exit

.lr.ph.preheader.i.us:                            ; preds = %.lr.ph, %Sim_UtilCountOnes.exit.loopexit.us
  %indvars.iv23 = phi i64 [ %indvars.iv.next24, %Sim_UtilCountOnes.exit.loopexit.us ], [ 0, %.lr.ph ]
  %.01418.us = phi i32 [ %22, %Sim_UtilCountOnes.exit.loopexit.us ], [ 0, %.lr.ph ]
  %10 = getelementptr inbounds nuw ptr, ptr %.val15, i64 %indvars.iv23
  %11 = load ptr, ptr %10, align 8, !tbaa !10
  br label %.lr.ph.i.us

.lr.ph.i.us:                                      ; preds = %.lr.ph.i.us, %.lr.ph.preheader.i.us
  %indvars.iv.i.us = phi i64 [ 0, %.lr.ph.preheader.i.us ], [ %indvars.iv.next.i.us, %.lr.ph.i.us ]
  %.089.i.us = phi i32 [ 0, %.lr.ph.preheader.i.us ], [ %17, %.lr.ph.i.us ]
  %12 = getelementptr inbounds nuw i8, ptr %11, i64 %indvars.iv.i.us
  %13 = load i8, ptr %12, align 1, !tbaa !77
  %14 = zext i8 %13 to i64
  %15 = getelementptr inbounds nuw [256 x i32], ptr @bit_count, i64 0, i64 %14
  %16 = load i32, ptr %15, align 4, !tbaa !14
  %17 = add nsw i32 %16, %.089.i.us
  %indvars.iv.next.i.us = add nuw nsw i64 %indvars.iv.i.us, 1
  %exitcond.not.i.us = icmp eq i64 %indvars.iv.next.i.us, %wide.trip.count.i
  br i1 %exitcond.not.i.us, label %Sim_UtilCountOnes.exit.loopexit.us, label %.lr.ph.i.us, !llvm.loop !78

Sim_UtilCountOnes.exit.loopexit.us:               ; preds = %.lr.ph.i.us
  %18 = add nsw i32 %17, -1
  %19 = mul nsw i32 %18, %17
  %20 = sdiv i32 %19, 2
  %21 = getelementptr inbounds nuw i32, ptr %.val16, i64 %indvars.iv23
  store i32 %20, ptr %21, align 4, !tbaa !14
  %22 = add nsw i32 %20, %.01418.us
  %indvars.iv.next24 = add nuw nsw i64 %indvars.iv23, 1
  %.val.us = load i32, ptr %4, align 4, !tbaa !13
  %23 = sext i32 %.val.us to i64
  %24 = icmp slt i64 %indvars.iv.next24, %23
  br i1 %24, label %.lr.ph.preheader.i.us, label %.critedge, !llvm.loop !85

Sim_UtilCountOnes.exit:                           ; preds = %.lr.ph, %Sim_UtilCountOnes.exit
  %indvars.iv = phi i64 [ %indvars.iv.next, %Sim_UtilCountOnes.exit ], [ 0, %.lr.ph ]
  %25 = getelementptr inbounds nuw i32, ptr %.val16, i64 %indvars.iv
  store i32 0, ptr %25, align 4, !tbaa !14
  %indvars.iv.next = add nuw nsw i64 %indvars.iv, 1
  %.val = load i32, ptr %4, align 4, !tbaa !13
  %26 = sext i32 %.val to i64
  %27 = icmp slt i64 %indvars.iv.next, %26
  br i1 %27, label %Sim_UtilCountOnes.exit, label %.critedge, !llvm.loop !85

.critedge:                                        ; preds = %Sim_UtilCountOnes.exit, %Sim_UtilCountOnes.exit.loopexit.us, %3
  %.014.lcssa = phi i32 [ 0, %3 ], [ %22, %Sim_UtilCountOnes.exit.loopexit.us ], [ 0, %Sim_UtilCountOnes.exit ]
  ret i32 %.014.lcssa
}